; Function Attrs: mustprogress nounwind uwtable
define hidden noundef ptr @_ZN14ParseGenerator8generateEP8JVMState(ptr noundef nonnull align 8 dereferenceable(24) %0, ptr noundef %1) unnamed_addr #0 align 2 {
  %3 = alloca %class.Parse, align 8
  %4 = tail call align 8 ptr @llvm.threadlocal.address.p0(ptr align 8 @_ZN6Thread12_thr_currentE)
  %5 = load ptr, ptr %4, align 8
  %6 = getelementptr inbounds i8, ptr %5, i64 1808
  %7 = load ptr, ptr %6, align 8
  %8 = getelementptr inbounds i8, ptr %7, i64 128
  %9 = load ptr, ptr %8, align 8
  tail call void @_ZN7Compile21print_inlining_updateEP13CallGenerator(ptr noundef nonnull align 8 dereferenceable(2316) %9, ptr noundef nonnull %0) #7
  %10 = getelementptr inbounds i8, ptr %9, i64 352
  %11 = load ptr, ptr %10, align 8
  %12 = getelementptr inbounds i8, ptr %11, i64 88
  %13 = load ptr, ptr %12, align 8
  %14 = icmp ne ptr %13, null
  %15 = getelementptr inbounds i8, ptr %9, i64 376
  %16 = load ptr, ptr %15, align 8
  %17 = icmp ne ptr %16, null
  %18 = select i1 %14, i1 true, i1 %17
  br i1 %18, label %34, label %19

19:                                               ; preds = %2
  %20 = getelementptr inbounds i8, ptr %0, i64 8
  %21 = load ptr, ptr %20, align 8
  %22 = getelementptr inbounds i8, ptr %0, i64 20
  %23 = load float, ptr %22, align 4
  call void @_ZN5ParseC1EP8JVMStateP8ciMethodf(ptr noundef nonnull align 8 dereferenceable(352) %3, ptr noundef %1, ptr noundef %21, float noundef %23) #7
  %24 = load ptr, ptr %10, align 8
  %25 = getelementptr inbounds i8, ptr %24, i64 88
  %26 = load ptr, ptr %25, align 8
  %27 = icmp ne ptr %26, null
  %28 = load ptr, ptr %15, align 8
  %29 = icmp ne ptr %28, null
  %30 = select i1 %27, i1 true, i1 %29
  br i1 %30, label %34, label %31

31:                                               ; preds = %19
  %32 = getelementptr inbounds i8, ptr %3, i64 152
  %33 = call noundef ptr @_ZN8GraphKit29transfer_exceptions_into_jvmsEv(ptr noundef nonnull align 8 dereferenceable(84) %32) #7
  br label %34

34:                                               ; preds = %19, %2, %31
  %.0 = phi ptr [ %33, %31 ], [ null, %2 ], [ null, %19 ]
  ret ptr %.0
}